; ModuleID = '36/1579.c'
source_filename = "36/1579.c"
target datalayout = "e-m:e-p270:32:32-p271:32:32-p272:64:64-i64:64-f80:128-n8:16:32:64-S128"
target triple = "x86_64-pc-linux-gnu"

@.str = private unnamed_addr constant [4 x i8] c"NO\0A\00", align 1
@.str.1 = private unnamed_addr constant [5 x i8] c"YES\0A\00", align 1

; Function Attrs: noinline nounwind uwtable
define dso_local void @bubble_sort(i8* %0, i32 %1) #0 {
  %3 = alloca i8*, align 8
  %4 = alloca i32, align 4
  %5 = alloca i32, align 4
  %6 = alloca i32, align 4
  %7 = alloca i8, align 1
  store i8* %0, i8** %3, align 8
  store i32 %1, i32* %4, align 4
  store i32 0, i32* %5, align 4
  br label %8

8:                                                ; preds = %63, %2
  %9 = load i32, i32* %5, align 4
  %10 = load i32, i32* %4, align 4
  %11 = sub nsw i32 %10, 1
  %12 = icmp slt i32 %9, %11
  br i1 %12, label %13, label %66

13:                                               ; preds = %8
  store i32 0, i32* %6, align 4
  br label %14

14:                                               ; preds = %59, %13
  %15 = load i32, i32* %6, align 4
  %16 = load i32, i32* %4, align 4
  %17 = sub nsw i32 %16, 1
  %18 = load i32, i32* %5, align 4
  %19 = sub nsw i32 %17, %18
  %20 = icmp slt i32 %15, %19
  br i1 %20, label %21, label %62

21:                                               ; preds = %14
  %22 = load i8*, i8** %3, align 8
  %23 = load i32, i32* %6, align 4
  %24 = sext i32 %23 to i64
  %25 = getelementptr inbounds i8, i8* %22, i64 %24
  %26 = load i8, i8* %25, align 1
  %27 = sext i8 %26 to i32
  %28 = load i8*, i8** %3, align 8
  %29 = load i32, i32* %6, align 4
  %30 = add nsw i32 %29, 1
  %31 = sext i32 %30 to i64
  %32 = getelementptr inbounds i8, i8* %28, i64 %31
  %33 = load i8, i8* %32, align 1
  %34 = sext i8 %33 to i32
  %35 = icmp sgt i32 %27, %34
  br i1 %35, label %36, label %58

36:                                               ; preds = %21
  %37 = load i8*, i8** %3, align 8
  %38 = load i32, i32* %6, align 4
  %39 = sext i32 %38 to i64
  %40 = getelementptr inbounds i8, i8* %37, i64 %39
  %41 = load i8, i8* %40, align 1
  store i8 %41, i8* %7, align 1
  %42 = load i8*, i8** %3, align 8
  %43 = load i32, i32* %6, align 4
  %44 = add nsw i32 %43, 1
  %45 = sext i32 %44 to i64
  %46 = getelementptr inbounds i8, i8* %42, i64 %45
  %47 = load i8, i8* %46, align 1
  %48 = load i8*, i8** %3, align 8
  %49 = load i32, i32* %6, align 4
  %50 = sext i32 %49 to i64
  %51 = getelementptr inbounds i8, i8* %48, i64 %50
  store i8 %47, i8* %51, align 1
  %52 = load i8, i8* %7, align 1
  %53 = load i8*, i8** %3, align 8
  %54 = load i32, i32* %6, align 4
  %55 = add nsw i32 %54, 1
  %56 = sext i32 %55 to i64
  %57 = getelementptr inbounds i8, i8* %53, i64 %56
  store i8 %52, i8* %57, align 1
  br label %58

58:                                               ; preds = %36, %21
  br label %59

59:                                               ; preds = %58
  %60 = load i32, i32* %6, align 4
  %61 = add nsw i32 %60, 1
  store i32 %61, i32* %6, align 4
  br label %14

62:                                               ; preds = %14
  br label %63

63:                                               ; preds = %62
  %64 = load i32, i32* %5, align 4
  %65 = add nsw i32 %64, 1
  store i32 %65, i32* %5, align 4
  br label %8

66:                                               ; preds = %8
  ret void
}

; Function Attrs: noinline nounwind uwtable
define dso_local i32 @main() #0 {
  %1 = alloca i32, align 4
  %2 = alloca [502 x i8], align 16
  %3 = alloca [502 x i8], align 16
  %4 = alloca [502 x i8], align 16
  %5 = alloca i32, align 4
  %6 = alloca i32, align 4
  store i32 0, i32* %1, align 4
  %7 = getelementptr inbounds [502 x i8], [502 x i8]* %2, i64 0, i64 0
  %8 = call i32 (i8*, ...) bitcast (i32 (...)* @gets to i32 (i8*, ...)*)(i8* %7)
  %9 = getelementptr inbounds [502 x i8], [502 x i8]* %2, i64 0, i64 0
  %10 = call i64 @strlen(i8* %9) #3
  %11 = udiv i64 %10, 2
  %12 = trunc i64 %11 to i32
  store i32 %12, i32* %5, align 4
  store i32 0, i32* %6, align 4
  br label %13

13:                                               ; preds = %35, %0
  %14 = load i32, i32* %6, align 4
  %15 = load i32, i32* %5, align 4
  %16 = icmp slt i32 %14, %15
  br i1 %16, label %17, label %38

17:                                               ; preds = %13
  %18 = load i32, i32* %6, align 4
  %19 = sext i32 %18 to i64
  %20 = getelementptr inbounds [502 x i8], [502 x i8]* %2, i64 0, i64 %19
  %21 = load i8, i8* %20, align 1
  %22 = load i32, i32* %6, align 4
  %23 = sext i32 %22 to i64
  %24 = getelementptr inbounds [502 x i8], [502 x i8]* %3, i64 0, i64 %23
  store i8 %21, i8* %24, align 1
  %25 = load i32, i32* %5, align 4
  %26 = load i32, i32* %6, align 4
  %27 = add nsw i32 %25, %26
  %28 = add nsw i32 %27, 1
  %29 = sext i32 %28 to i64
  %30 = getelementptr inbounds [502 x i8], [502 x i8]* %2, i64 0, i64 %29
  %31 = load i8, i8* %30, align 1
  %32 = load i32, i32* %6, align 4
  %33 = sext i32 %32 to i64
  %34 = getelementptr inbounds [502 x i8], [502 x i8]* %4, i64 0, i64 %33
  store i8 %31, i8* %34, align 1
  br label %35

35:                                               ; preds = %17
  %36 = load i32, i32* %6, align 4
  %37 = add nsw i32 %36, 1
  store i32 %37, i32* %6, align 4
  br label %13

38:                                               ; preds = %13
  %39 = load i32, i32* %5, align 4
  %40 = sext i32 %39 to i64
  %41 = getelementptr inbounds [502 x i8], [502 x i8]* %3, i64 0, i64 %40
  store i8 0, i8* %41, align 1
  %42 = load i32, i32* %5, align 4
  %43 = sext i32 %42 to i64
  %44 = getelementptr inbounds [502 x i8], [502 x i8]* %4, i64 0, i64 %43
  store i8 0, i8* %44, align 1
  %45 = getelementptr inbounds [502 x i8], [502 x i8]* %3, i64 0, i64 0
  %46 = load i32, i32* %5, align 4
  call void @bubble_sort(i8* %45, i32 %46)
  %47 = getelementptr inbounds [502 x i8], [502 x i8]* %4, i64 0, i64 0
  %48 = load i32, i32* %5, align 4
  call void @bubble_sort(i8* %47, i32 %48)
  %49 = getelementptr inbounds [502 x i8], [502 x i8]* %3, i64 0, i64 0
  %50 = getelementptr inbounds [502 x i8], [502 x i8]* %4, i64 0, i64 0
  %51 = call i32 @strcmp(i8* %49, i8* %50) #3
  %52 = icmp ne i32 %51, 0
  br i1 %52, label %53, label %55

53:                                               ; preds = %38
  %54 = call i32 (i8*, ...) @printf(i8* getelementptr inbounds ([4 x i8], [4 x i8]* @.str, i64 0, i64 0))
  br label %57

55:                                               ; preds = %38
  %56 = call i32 (i8*, ...) @printf(i8* getelementptr inbounds ([5 x i8], [5 x i8]* @.str.1, i64 0, i64 0))
  br label %57

57:                                               ; preds = %55, %53
  %58 = load i32, i32* %1, align 4
  ret i32 %58
}

declare dso_local i32 @gets(...) #1

; Function Attrs: nounwind readonly
declare dso_local i64 @strlen(i8*) #2

; Function Attrs: nounwind readonly
declare dso_local i32 @strcmp(i8*, i8*) #2

declare dso_local i32 @printf(i8*, ...) #1


!llvm.module.flags = !{!0}
!llvm.ident = !{!1}

!0 = !{i32 1, !"wchar_size", i32 4}
!1 = !{!"clang version 10.0.0-4ubuntu1 "}
